; Function Attrs: mustprogress uwtable
define void @_ZN8facebook5velox16ByteOutputStream16appendStringViewENS0_10StringViewE(ptr nocapture noundef nonnull align 8 dereferenceable(60) %this, i64 %value.coerce0, ptr %value.coerce1) local_unnamed_addr #0 align 2 {
entry:
  %value = alloca %"struct.facebook::velox::StringView", align 8
  store i64 %value.coerce0, ptr %value, align 8
  %0 = getelementptr inbounds i8, ptr %value, i64 8
  store ptr %value.coerce1, ptr %0, align 8
  %1 = trunc i64 %value.coerce0 to i32
  %cmp.i.i.i.i = icmp ult i32 %1, 13
  %prefix_.i.i = getelementptr inbounds i8, ptr %value, i64 4
  %cond.i.i = select i1 %cmp.i.i.i.i, ptr %prefix_.i.i, ptr %value.coerce1
  %conv.i.i = and i64 %value.coerce0, 4294967295
  call void @_ZN8facebook5velox16ByteOutputStream16appendStringViewESt17basic_string_viewIcSt11char_traitsIcEE(ptr noundef nonnull align 8 dereferenceable(60) %this, i64 %conv.i.i, ptr %cond.i.i)
  ret void
}